target datalayout = "e-m:e-p270:32:32-p271:32:32-p272:64:64-i64:64-i128:128-f80:128-n8:16:32:64-S128"
target triple = "x86_64-pc-linux-gnu"

%struct.anon = type { ptr, ptr, ptr }
%struct.param_owner_st = type { ptr, ptr }

@.str.3 = private unnamed_addr constant [30 x i8] c"../openssl/test/params_test.c\00", align 1
@.str.4 = private unnamed_addr constant [9 x i8] c"Case: %s\00", align 1

; Function Attrs: nounwind uwtable
define internal i32 @test_case(i32 noundef %0) #0 {
  %2 = alloca i32, align 4
  store i32 %0, ptr %2, align 4, !tbaa !4
  %3 = load i32, ptr %2, align 4, !tbaa !4
  %4 = sext i32 %3 to i64
  %5 = getelementptr inbounds [4 x %struct.anon], ptr @test_cases, i64 0, i64 %4
  %6 = getelementptr inbounds nuw %struct.anon, ptr %5, i32 0, i32 2
  %7 = load ptr, ptr %6, align 8, !tbaa !8
  call void (ptr, i32, ptr, ...) @test_info(ptr noundef @.str.3, i32 noundef 540, ptr noundef @.str.4, ptr noundef %7)
  %8 = load i32, ptr %2, align 4, !tbaa !4
  %9 = sext i32 %8 to i64
  %10 = getelementptr inbounds [4 x %struct.anon], ptr @test_cases, i64 0, i64 %9
  %11 = getelementptr inbounds nuw %struct.anon, ptr %10, i32 0, i32 1
  %12 = load ptr, ptr %11, align 8, !tbaa !14
  %13 = getelementptr inbounds nuw %struct.param_owner_st, ptr %12, i32 0, i32 0
  %14 = load ptr, ptr %13, align 8, !tbaa !15
  %15 = load i32, ptr %2, align 4, !tbaa !4
  %16 = sext i32 %15 to i64
  %17 = getelementptr inbounds [4 x %struct.anon], ptr @test_cases, i64 0, i64 %16
  %18 = getelementptr inbounds nuw %struct.anon, ptr %17, i32 0, i32 0
  %19 = load ptr, ptr %18, align 8, !tbaa !18
  %20 = call i32 @test_case_variant(ptr noundef %14, ptr noundef %19)
  %21 = icmp ne i32 %20, 0
  br i1 %21, label %22, label %49

22:                                               ; preds = %1
  %23 = load i32, ptr %2, align 4, !tbaa !4
  %24 = sext i32 %23 to i64
  %25 = getelementptr inbounds [4 x %struct.anon], ptr @test_cases, i64 0, i64 %24
  %26 = getelementptr inbounds nuw %struct.anon, ptr %25, i32 0, i32 1
  %27 = load ptr, ptr %26, align 8, !tbaa !14
  %28 = getelementptr inbounds nuw %struct.param_owner_st, ptr %27, i32 0, i32 1
  %29 = load ptr, ptr %28, align 8, !tbaa !19
  %30 = icmp eq ptr %29, null
  br i1 %30, label %47, label %31

31:                                               ; preds = %22
  %32 = load i32, ptr %2, align 4, !tbaa !4
  %33 = sext i32 %32 to i64
  %34 = getelementptr inbounds [4 x %struct.anon], ptr @test_cases, i64 0, i64 %33
  %35 = getelementptr inbounds nuw %struct.anon, ptr %34, i32 0, i32 1
  %36 = load ptr, ptr %35, align 8, !tbaa !14
  %37 = getelementptr inbounds nuw %struct.param_owner_st, ptr %36, i32 0, i32 1
  %38 = load ptr, ptr %37, align 8, !tbaa !19
  %39 = call ptr %38()
  %40 = load i32, ptr %2, align 4, !tbaa !4
  %41 = sext i32 %40 to i64
  %42 = getelementptr inbounds [4 x %struct.anon], ptr @test_cases, i64 0, i64 %41
  %43 = getelementptr inbounds nuw %struct.anon, ptr %42, i32 0, i32 0
  %44 = load ptr, ptr %43, align 8, !tbaa !18
  %45 = call i32 @test_case_variant(ptr noundef %39, ptr noundef %44)
  %46 = icmp ne i32 %45, 0
  br label %47

47:                                               ; preds = %31, %22
  %48 = phi i1 [ true, %22 ], [ %46, %31 ]
  br label %49

49:                                               ; preds = %47, %1
  %50 = phi i1 [ false, %1 ], [ %48, %47 ]
  %51 = zext i1 %50 to i32
  ret i32 %51
}