; Function Attrs: nounwind uwtable
define internal range(i32 0, 2) i32 @test_case(i32 noundef %0) #0 {
  %2 = sext i32 %0 to i64
  %3 = getelementptr inbounds [4 x %struct.anon], ptr @test_cases, i64 0, i64 %2
  %4 = getelementptr inbounds nuw i8, ptr %3, i64 16
  %5 = load ptr, ptr %4, align 8, !tbaa !4
  tail call void (ptr, i32, ptr, ...) @test_info(ptr noundef nonnull @.str.3, i32 noundef 540, ptr noundef nonnull @.str.4, ptr noundef %5) #7
  %6 = getelementptr inbounds nuw i8, ptr %3, i64 8
  %7 = load ptr, ptr %6, align 8, !tbaa !12
  %8 = load ptr, ptr %7, align 8, !tbaa !13
  %9 = load ptr, ptr %3, align 8, !tbaa !16
  %10 = tail call fastcc i32 @test_case_variant(ptr noundef %8, ptr noundef %9)
  %.not = icmp eq i32 %10, 0
  br i1 %.not, label %18, label %11

11:                                               ; preds = %1
  %12 = getelementptr inbounds nuw i8, ptr %7, i64 8
  %13 = load ptr, ptr %12, align 8, !tbaa !17
  %14 = icmp eq ptr %13, null
  br i1 %14, label %18, label %15

15:                                               ; preds = %11
  %16 = tail call ptr %13() #7
  %17 = tail call fastcc i32 @test_case_variant(ptr noundef %16, ptr noundef %9)
  br label %18

18:                                               ; preds = %11, %15, %1
  %19 = phi i32 [ 0, %1 ], [ 1, %11 ], [ %17, %15 ]
  ret i32 %19
}